target datalayout = "e-m:e-p270:32:32-p271:32:32-p272:64:64-i64:64-i128:128-f80:128-n8:16:32:64-S128"
target triple = "x86_64-pc-linux-gnu"

%struct.OnigCaptureTreeNodeStruct = type { i32, i32, i32, i32, i32, ptr }

; Function Attrs: nounwind uwtable
define internal ptr @history_node_new() #0 {
  %1 = alloca ptr, align 8
  %2 = alloca ptr, align 8
  %3 = alloca i32, align 4
  call void @llvm.lifetime.start.p0(i64 8, ptr %2) #9
  %4 = call noalias ptr @malloc(i64 noundef 32) #10
  store ptr %4, ptr %2, align 8, !tbaa !34
  %5 = load ptr, ptr %2, align 8, !tbaa !34
  %6 = icmp eq ptr %5, null
  br i1 %6, label %7, label %8

7:                                                ; preds = %0
  store ptr null, ptr %1, align 8
  store i32 1, ptr %3, align 4
  br label %22

8:                                                ; preds = %0
  %9 = load ptr, ptr %2, align 8, !tbaa !34
  %10 = getelementptr inbounds nuw %struct.OnigCaptureTreeNodeStruct, ptr %9, i32 0, i32 5
  store ptr null, ptr %10, align 8, !tbaa !40
  %11 = load ptr, ptr %2, align 8, !tbaa !34
  %12 = getelementptr inbounds nuw %struct.OnigCaptureTreeNodeStruct, ptr %11, i32 0, i32 3
  store i32 0, ptr %12, align 4, !tbaa !219
  %13 = load ptr, ptr %2, align 8, !tbaa !34
  %14 = getelementptr inbounds nuw %struct.OnigCaptureTreeNodeStruct, ptr %13, i32 0, i32 4
  store i32 0, ptr %14, align 8, !tbaa !39
  %15 = load ptr, ptr %2, align 8, !tbaa !34
  %16 = getelementptr inbounds nuw %struct.OnigCaptureTreeNodeStruct, ptr %15, i32 0, i32 0
  store i32 -1, ptr %16, align 8, !tbaa !126
  %17 = load ptr, ptr %2, align 8, !tbaa !34
  %18 = getelementptr inbounds nuw %struct.OnigCaptureTreeNodeStruct, ptr %17, i32 0, i32 1
  store i32 -1, ptr %18, align 4, !tbaa !35
  %19 = load ptr, ptr %2, align 8, !tbaa !34
  %20 = getelementptr inbounds nuw %struct.OnigCaptureTreeNodeStruct, ptr %19, i32 0, i32 2
  store i32 -1, ptr %20, align 8, !tbaa !38
  %21 = load ptr, ptr %2, align 8, !tbaa !34
  store ptr %21, ptr %1, align 8
  store i32 1, ptr %3, align 4
  br label %22

22:                                               ; preds = %8, %7
  call void @llvm.lifetime.end.p0(i64 8, ptr %2) #9
  %23 = load ptr, ptr %1, align 8
  ret ptr %23
}